target datalayout = "e-m:e-p270:32:32-p271:32:32-p272:64:64-i64:64-i128:128-f80:128-n8:16:32:64-S128"
target triple = "x86_64-pc-linux-gnu"

%struct.KINMemRec = type { double, ptr, ptr, double, double, i32, i32, i64, i64, i64, i64, i32, i32, i32, i32, i32, i32, i32, i32, i32, double, double, double, double, double, double, double, double, double, i32, double, i64, i64, i64, i64, i64, i64, i64, ptr, ptr, ptr, ptr, ptr, ptr, ptr, ptr, ptr, ptr, ptr, ptr, ptr, ptr, ptr, ptr, ptr, ptr, i64, i32, i32, i64, i64, i64, i64, ptr, ptr, ptr, ptr, i32, ptr, double, double, double, double, double, i32, double, double, double, i32, ptr, ptr, ptr, ptr, ptr, ptr }
%struct.KINDlsMemRec = type { i32, i64, i64, i64, i64, i32, ptr, ptr, ptr, ptr, ptr, ptr, i64, i64, i64 }

; Function Attrs: nounwind uwtable
define internal i32 @kinBandsolve(ptr noundef %0, ptr noundef %1, ptr noundef %2, ptr noundef %3, ptr noundef %4) #0 {
  %6 = alloca ptr, align 8
  %7 = alloca ptr, align 8
  %8 = alloca ptr, align 8
  %9 = alloca ptr, align 8
  %10 = alloca ptr, align 8
  %11 = alloca ptr, align 8
  %12 = alloca ptr, align 8
  store ptr %0, ptr %6, align 8, !tbaa !9
  store ptr %1, ptr %7, align 8, !tbaa !56
  store ptr %2, ptr %8, align 8, !tbaa !56
  store ptr %3, ptr %9, align 8, !tbaa !57
  store ptr %4, ptr %10, align 8, !tbaa !57
  call void @llvm.lifetime.start.p0(i64 8, ptr %11) #5
  call void @llvm.lifetime.start.p0(i64 8, ptr %12) #5
  %13 = load ptr, ptr %6, align 8, !tbaa !9
  %14 = getelementptr inbounds nuw %struct.KINMemRec, ptr %13, i32 0, i32 68
  %15 = load ptr, ptr %14, align 8, !tbaa !47
  store ptr %15, ptr %11, align 8, !tbaa !28
  %16 = load ptr, ptr %8, align 8, !tbaa !56
  %17 = load ptr, ptr %7, align 8, !tbaa !56
  call void @N_VScale(double noundef 1.000000e+00, ptr noundef %16, ptr noundef %17)
  %18 = load ptr, ptr %7, align 8, !tbaa !56
  %19 = call ptr @N_VGetArrayPointer(ptr noundef %18)
  store ptr %19, ptr %12, align 8, !tbaa !57
  %20 = load ptr, ptr %11, align 8, !tbaa !28
  %21 = getelementptr inbounds nuw %struct.KINDlsMemRec, ptr %20, i32 0, i32 9
  %22 = load ptr, ptr %21, align 8, !tbaa !44
  %23 = load ptr, ptr %11, align 8, !tbaa !28
  %24 = getelementptr inbounds nuw %struct.KINDlsMemRec, ptr %23, i32 0, i32 11
  %25 = load ptr, ptr %24, align 8, !tbaa !45
  %26 = load ptr, ptr %12, align 8, !tbaa !57
  call void @BandGBTRS(ptr noundef %22, ptr noundef %25, ptr noundef %26)
  %27 = load ptr, ptr %8, align 8, !tbaa !56
  %28 = load ptr, ptr %6, align 8, !tbaa !9
  %29 = getelementptr inbounds nuw %struct.KINMemRec, ptr %28, i32 0, i32 43
  %30 = load ptr, ptr %29, align 8, !tbaa !58
  %31 = load ptr, ptr %8, align 8, !tbaa !56
  call void @N_VProd(ptr noundef %27, ptr noundef %30, ptr noundef %31)
  %32 = load ptr, ptr %8, align 8, !tbaa !56
  %33 = load ptr, ptr %6, align 8, !tbaa !9
  %34 = getelementptr inbounds nuw %struct.KINMemRec, ptr %33, i32 0, i32 43
  %35 = load ptr, ptr %34, align 8, !tbaa !58
  %36 = load ptr, ptr %8, align 8, !tbaa !56
  call void @N_VProd(ptr noundef %32, ptr noundef %35, ptr noundef %36)
  %37 = load ptr, ptr %6, align 8, !tbaa !9
  %38 = getelementptr inbounds nuw %struct.KINMemRec, ptr %37, i32 0, i32 40
  %39 = load ptr, ptr %38, align 8, !tbaa !53
  %40 = load ptr, ptr %8, align 8, !tbaa !56
  %41 = call double @N_VDotProd(ptr noundef %39, ptr noundef %40)
  %42 = load ptr, ptr %10, align 8, !tbaa !57
  store double %41, ptr %42, align 8, !tbaa !59
  %43 = load ptr, ptr %11, align 8, !tbaa !28
  %44 = getelementptr inbounds nuw %struct.KINDlsMemRec, ptr %43, i32 0, i32 14
  store i64 0, ptr %44, align 8, !tbaa !38
  call void @llvm.lifetime.end.p0(i64 8, ptr %12) #5
  call void @llvm.lifetime.end.p0(i64 8, ptr %11) #5
  ret i32 0
}