; Function Attrs: nounwind uwtable
define internal noundef i32 @kinBandsolve(ptr noundef readonly captures(none) %0, ptr noundef %1, ptr noundef %2, ptr readnone captures(none) %3, ptr noundef writeonly captures(none) initializes((0, 8)) %4) #0 {
  %6 = getelementptr inbounds nuw i8, ptr %0, i64 496
  %7 = load ptr, ptr %6, align 8, !tbaa !39
  tail call void @N_VScale(double noundef 1.000000e+00, ptr noundef %2, ptr noundef %1) #5
  %8 = tail call ptr @N_VGetArrayPointer(ptr noundef %1) #5
  %9 = getelementptr inbounds nuw i8, ptr %7, i64 72
  %10 = load ptr, ptr %9, align 8, !tbaa !36
  %11 = getelementptr inbounds nuw i8, ptr %7, i64 88
  %12 = load ptr, ptr %11, align 8, !tbaa !37
  tail call void @BandGBTRS(ptr noundef %10, ptr noundef %12, ptr noundef %8) #5
  %13 = getelementptr inbounds nuw i8, ptr %0, i64 304
  %14 = load ptr, ptr %13, align 8, !tbaa !48
  tail call void @N_VProd(ptr noundef %2, ptr noundef %14, ptr noundef %2) #5
  %15 = load ptr, ptr %13, align 8, !tbaa !48
  tail call void @N_VProd(ptr noundef %2, ptr noundef %15, ptr noundef %2) #5
  %16 = getelementptr inbounds nuw i8, ptr %0, i64 280
  %17 = load ptr, ptr %16, align 8, !tbaa !46
  %18 = tail call double @N_VDotProd(ptr noundef %17, ptr noundef %2) #5
  store double %18, ptr %4, align 8, !tbaa !49
  %19 = getelementptr inbounds nuw i8, ptr %7, i64 112
  store i64 0, ptr %19, align 8, !tbaa !30
  ret i32 0
}